#include <math.h>
#include <stdio.h>
#include <stdlib.h>
#include <string.h>

int main()
{
	int n,a1,a2,a3,a4;
	scanf("%d",&n);
	if (n>=1000)
	{a4=n/1000;
	 a3=(n-a4*1000)/100;
	 a2=(n-a4*1000-a3*100)/10;
	 a1=n-a4*1000-a3*100-a2*10;
	 printf("%d%d%d%d",a1,a2,a3,a4);
	}
	if (n>=100 && n<1000)
	{a3=n/100;
	 a2=(n-a3*100)/10;
	 a1=n-a3*100-a2*10;
	 printf("%d%d%d",a1,a2,a3);
	}
	if (n>=10 && n<100)
	{a2=n/10;
	 a1=n-a2*10;
	 printf("%d%d",a1,a2);
	}
	if (n<10)
	{printf("%d",n);
	}
	return 0;
}
