; ModuleID = '16/100.c'
source_filename = "16/100.c"
target datalayout = "e-m:e-p270:32:32-p271:32:32-p272:64:64-i64:64-f80:128-n8:16:32:64-S128"
target triple = "x86_64-pc-linux-gnu"

@.str = private unnamed_addr constant [3 x i8] c"%d\00", align 1
@.str.1 = private unnamed_addr constant [9 x i8] c"%d%d%d%d\00", align 1
@.str.2 = private unnamed_addr constant [7 x i8] c"%d%d%d\00", align 1
@.str.3 = private unnamed_addr constant [5 x i8] c"%d%d\00", align 1

; Function Attrs: noinline nounwind uwtable
define dso_local i32 @main() #0 {
  %1 = alloca i32, align 4
  %2 = alloca i32, align 4
  %3 = alloca i32, align 4
  %4 = alloca i32, align 4
  %5 = alloca i32, align 4
  %6 = alloca i32, align 4
  store i32 0, i32* %1, align 4
  %7 = call i32 (i8*, ...) @__isoc99_scanf(i8* getelementptr inbounds ([3 x i8], [3 x i8]* @.str, i64 0, i64 0), i32* %2)
  %8 = load i32, i32* %2, align 4
  %9 = icmp sge i32 %8, 1000
  br i1 %9, label %10, label %41

10:                                               ; preds = %0
  %11 = load i32, i32* %2, align 4
  %12 = sdiv i32 %11, 1000
  store i32 %12, i32* %6, align 4
  %13 = load i32, i32* %2, align 4
  %14 = load i32, i32* %6, align 4
  %15 = mul nsw i32 %14, 1000
  %16 = sub nsw i32 %13, %15
  %17 = sdiv i32 %16, 100
  store i32 %17, i32* %5, align 4
  %18 = load i32, i32* %2, align 4
  %19 = load i32, i32* %6, align 4
  %20 = mul nsw i32 %19, 1000
  %21 = sub nsw i32 %18, %20
  %22 = load i32, i32* %5, align 4
  %23 = mul nsw i32 %22, 100
  %24 = sub nsw i32 %21, %23
  %25 = sdiv i32 %24, 10
  store i32 %25, i32* %4, align 4
  %26 = load i32, i32* %2, align 4
  %27 = load i32, i32* %6, align 4
  %28 = mul nsw i32 %27, 1000
  %29 = sub nsw i32 %26, %28
  %30 = load i32, i32* %5, align 4
  %31 = mul nsw i32 %30, 100
  %32 = sub nsw i32 %29, %31
  %33 = load i32, i32* %4, align 4
  %34 = mul nsw i32 %33, 10
  %35 = sub nsw i32 %32, %34
  store i32 %35, i32* %3, align 4
  %36 = load i32, i32* %3, align 4
  %37 = load i32, i32* %4, align 4
  %38 = load i32, i32* %5, align 4
  %39 = load i32, i32* %6, align 4
  %40 = call i32 (i8*, ...) @printf(i8* getelementptr inbounds ([9 x i8], [9 x i8]* @.str.1, i64 0, i64 0), i32 %36, i32 %37, i32 %38, i32 %39)
  br label %41

41:                                               ; preds = %10, %0
  %42 = load i32, i32* %2, align 4
  %43 = icmp sge i32 %42, 100
  br i1 %43, label %44, label %66

44:                                               ; preds = %41
  %45 = load i32, i32* %2, align 4
  %46 = icmp slt i32 %45, 1000
  br i1 %46, label %47, label %66

47:                                               ; preds = %44
  %48 = load i32, i32* %2, align 4
  %49 = sdiv i32 %48, 100
  store i32 %49, i32* %5, align 4
  %50 = load i32, i32* %2, align 4
  %51 = load i32, i32* %5, align 4
  %52 = mul nsw i32 %51, 100
  %53 = sub nsw i32 %50, %52
  %54 = sdiv i32 %53, 10
  store i32 %54, i32* %4, align 4
  %55 = load i32, i32* %2, align 4
  %56 = load i32, i32* %5, align 4
  %57 = mul nsw i32 %56, 100
  %58 = sub nsw i32 %55, %57
  %59 = load i32, i32* %4, align 4
  %60 = mul nsw i32 %59, 10
  %61 = sub nsw i32 %58, %60
  store i32 %61, i32* %3, align 4
  %62 = load i32, i32* %3, align 4
  %63 = load i32, i32* %4, align 4
  %64 = load i32, i32* %5, align 4
  %65 = call i32 (i8*, ...) @printf(i8* getelementptr inbounds ([7 x i8], [7 x i8]* @.str.2, i64 0, i64 0), i32 %62, i32 %63, i32 %64)
  br label %66

66:                                               ; preds = %47, %44, %41
  %67 = load i32, i32* %2, align 4
  %68 = icmp sge i32 %67, 10
  br i1 %68, label %69, label %82

69:                                               ; preds = %66
  %70 = load i32, i32* %2, align 4
  %71 = icmp slt i32 %70, 100
  br i1 %71, label %72, label %82

72:                                               ; preds = %69
  %73 = load i32, i32* %2, align 4
  %74 = sdiv i32 %73, 10
  store i32 %74, i32* %4, align 4
  %75 = load i32, i32* %2, align 4
  %76 = load i32, i32* %4, align 4
  %77 = mul nsw i32 %76, 10
  %78 = sub nsw i32 %75, %77
  store i32 %78, i32* %3, align 4
  %79 = load i32, i32* %3, align 4
  %80 = load i32, i32* %4, align 4
  %81 = call i32 (i8*, ...) @printf(i8* getelementptr inbounds ([5 x i8], [5 x i8]* @.str.3, i64 0, i64 0), i32 %79, i32 %80)
  br label %82

82:                                               ; preds = %72, %69, %66
  %83 = load i32, i32* %2, align 4
  %84 = icmp slt i32 %83, 10
  br i1 %84, label %85, label %88

85:                                               ; preds = %82
  %86 = load i32, i32* %2, align 4
  %87 = call i32 (i8*, ...) @printf(i8* getelementptr inbounds ([3 x i8], [3 x i8]* @.str, i64 0, i64 0), i32 %86)
  br label %88

88:                                               ; preds = %85, %82
  ret i32 0
}

declare dso_local i32 @__isoc99_scanf(i8*, ...) #1

declare dso_local i32 @printf(i8*, ...) #1


!llvm.module.flags = !{!0}
!llvm.ident = !{!1}

!0 = !{i32 1, !"wchar_size", i32 4}
!1 = !{!"clang version 10.0.0-4ubuntu1 "}
